; ModuleID = 'source-C-CXX/52/781.c'
source_filename = "source-C-CXX/52/781.c"
target datalayout = "e-m:e-p270:32:32-p271:32:32-p272:64:64-i64:64-f80:128-n8:16:32:64-S128"
target triple = "x86_64-pc-linux-gnu"

@.str = private unnamed_addr constant [3 x i8] c"%d\00", align 1
@.str.1 = private unnamed_addr constant [4 x i8] c",%d\00", align 1

; Function Attrs: nofree nounwind sspstrong uwtable
define dso_local void @main() local_unnamed_addr #0 {
  %1 = alloca [300 x i32], align 16
  %2 = alloca [300 x i32], align 16
  %3 = alloca i32, align 4
  %4 = bitcast [300 x i32]* %1 to i8*
  call void @llvm.lifetime.start.p0i8(i64 1200, i8* nonnull %4) #4
  call void @llvm.memset.p0i8.i64(i8* noundef nonnull align 16 dereferenceable(1200) %4, i8 0, i64 1200, i1 false)
  %5 = bitcast [300 x i32]* %2 to i8*
  call void @llvm.lifetime.start.p0i8(i64 1200, i8* nonnull %5) #4
  call void @llvm.memset.p0i8.i64(i8* noundef nonnull align 16 dereferenceable(1200) %5, i8 0, i64 1200, i1 false)
  %6 = bitcast i32* %3 to i8*
  call void @llvm.lifetime.start.p0i8(i64 4, i8* nonnull %6) #4
  %7 = call i32 (i8*, ...) @__isoc99_scanf(i8* getelementptr inbounds ([3 x i8], [3 x i8]* @.str, i64 0, i64 0), i32* nonnull %3)
  %8 = load i32, i32* %3, align 4, !tbaa !5
  %9 = icmp sgt i32 %8, 0
  br i1 %9, label %16, label %85

10:                                               ; preds = %16
  %11 = icmp sgt i32 %21, 0
  br i1 %11, label %12, label %85

12:                                               ; preds = %10
  %13 = zext i32 %21 to i64
  %14 = zext i32 %21 to i64
  %15 = add nsw i64 %14, -2
  br label %33

16:                                               ; preds = %0, %16
  %17 = phi i64 [ %20, %16 ], [ 0, %0 ]
  %18 = getelementptr inbounds [300 x i32], [300 x i32]* %1, i64 0, i64 %17
  %19 = call i32 (i8*, ...) @__isoc99_scanf(i8* getelementptr inbounds ([3 x i8], [3 x i8]* @.str, i64 0, i64 0), i32* nonnull %18)
  %20 = add nuw nsw i64 %17, 1
  %21 = load i32, i32* %3, align 4, !tbaa !5
  %22 = sext i32 %21 to i64
  %23 = icmp slt i64 %20, %22
  br i1 %23, label %16, label %10, !llvm.loop !9

24:                                               ; preds = %52, %117, %33
  %25 = add nuw nsw i64 %35, 1
  %26 = icmp eq i64 %36, %14
  br i1 %26, label %27, label %33, !llvm.loop !11

27:                                               ; preds = %24
  br i1 %11, label %28, label %85

28:                                               ; preds = %27
  %29 = and i64 %14, 1
  %30 = icmp eq i32 %21, 1
  br i1 %30, label %87, label %31

31:                                               ; preds = %28
  %32 = and i64 %14, 4294967294
  br label %68

33:                                               ; preds = %12, %24
  %34 = phi i64 [ 0, %12 ], [ %36, %24 ]
  %35 = phi i64 [ 1, %12 ], [ %25, %24 ]
  %36 = add nuw nsw i64 %34, 1
  %37 = getelementptr inbounds [300 x i32], [300 x i32]* %1, i64 0, i64 %34
  %38 = icmp ult i64 %36, %13
  br i1 %38, label %39, label %24

39:                                               ; preds = %33
  %40 = xor i64 %34, -1
  %41 = add nsw i64 %40, %14
  %42 = and i64 %41, 1
  %43 = icmp eq i64 %42, 0
  br i1 %43, label %52, label %44

44:                                               ; preds = %39
  %45 = load i32, i32* %37, align 4, !tbaa !5
  %46 = getelementptr inbounds [300 x i32], [300 x i32]* %1, i64 0, i64 %35
  %47 = load i32, i32* %46, align 4, !tbaa !5
  %48 = icmp eq i32 %45, %47
  br i1 %48, label %49, label %50

49:                                               ; preds = %44
  store i32 0, i32* %46, align 4, !tbaa !5
  br label %50

50:                                               ; preds = %49, %44
  %51 = add nuw nsw i64 %35, 1
  br label %52

52:                                               ; preds = %50, %39
  %53 = phi i64 [ %51, %50 ], [ %35, %39 ]
  %54 = icmp eq i64 %15, %34
  br i1 %54, label %24, label %55

55:                                               ; preds = %52, %117
  %56 = phi i64 [ %118, %117 ], [ %53, %52 ]
  %57 = load i32, i32* %37, align 4, !tbaa !5
  %58 = getelementptr inbounds [300 x i32], [300 x i32]* %1, i64 0, i64 %56
  %59 = load i32, i32* %58, align 4, !tbaa !5
  %60 = icmp eq i32 %57, %59
  br i1 %60, label %61, label %62

61:                                               ; preds = %55
  store i32 0, i32* %58, align 4, !tbaa !5
  br label %62

62:                                               ; preds = %55, %61
  %63 = add nuw nsw i64 %56, 1
  %64 = load i32, i32* %37, align 4, !tbaa !5
  %65 = getelementptr inbounds [300 x i32], [300 x i32]* %1, i64 0, i64 %63
  %66 = load i32, i32* %65, align 4, !tbaa !5
  %67 = icmp eq i32 %64, %66
  br i1 %67, label %116, label %117

68:                                               ; preds = %124, %31
  %69 = phi i64 [ 0, %31 ], [ %126, %124 ]
  %70 = phi i32 [ 0, %31 ], [ %125, %124 ]
  %71 = phi i64 [ %32, %31 ], [ %127, %124 ]
  %72 = getelementptr inbounds [300 x i32], [300 x i32]* %1, i64 0, i64 %69
  %73 = load i32, i32* %72, align 8, !tbaa !5
  %74 = icmp eq i32 %73, 0
  br i1 %74, label %79, label %75

75:                                               ; preds = %68
  %76 = sext i32 %70 to i64
  %77 = getelementptr inbounds [300 x i32], [300 x i32]* %2, i64 0, i64 %76
  store i32 %73, i32* %77, align 4, !tbaa !5
  %78 = add nsw i32 %70, 1
  br label %79

79:                                               ; preds = %68, %75
  %80 = phi i32 [ %78, %75 ], [ %70, %68 ]
  %81 = or i64 %69, 1
  %82 = getelementptr inbounds [300 x i32], [300 x i32]* %1, i64 0, i64 %81
  %83 = load i32, i32* %82, align 4, !tbaa !5
  %84 = icmp eq i32 %83, 0
  br i1 %84, label %124, label %120

85:                                               ; preds = %27, %0, %10
  %86 = call i32 (i8*, ...) @printf(i8* nonnull dereferenceable(1) getelementptr inbounds ([3 x i8], [3 x i8]* @.str, i64 0, i64 0), i32 0)
  br label %115

87:                                               ; preds = %124, %28
  %88 = phi i32 [ undef, %28 ], [ %125, %124 ]
  %89 = phi i64 [ 0, %28 ], [ %126, %124 ]
  %90 = phi i32 [ 0, %28 ], [ %125, %124 ]
  %91 = icmp eq i64 %29, 0
  br i1 %91, label %100, label %92

92:                                               ; preds = %87
  %93 = getelementptr inbounds [300 x i32], [300 x i32]* %1, i64 0, i64 %89
  %94 = load i32, i32* %93, align 4, !tbaa !5
  %95 = icmp eq i32 %94, 0
  br i1 %95, label %100, label %96

96:                                               ; preds = %92
  %97 = sext i32 %90 to i64
  %98 = getelementptr inbounds [300 x i32], [300 x i32]* %2, i64 0, i64 %97
  store i32 %94, i32* %98, align 4, !tbaa !5
  %99 = add nsw i32 %90, 1
  br label %100

100:                                              ; preds = %96, %92, %87
  %101 = phi i32 [ %88, %87 ], [ %99, %96 ], [ %90, %92 ]
  %102 = getelementptr inbounds [300 x i32], [300 x i32]* %2, i64 0, i64 0
  %103 = load i32, i32* %102, align 16, !tbaa !5
  %104 = call i32 (i8*, ...) @printf(i8* nonnull dereferenceable(1) getelementptr inbounds ([3 x i8], [3 x i8]* @.str, i64 0, i64 0), i32 %103)
  %105 = icmp sgt i32 %101, 1
  br i1 %105, label %106, label %115

106:                                              ; preds = %100
  %107 = zext i32 %101 to i64
  br label %108

108:                                              ; preds = %106, %108
  %109 = phi i64 [ 1, %106 ], [ %113, %108 ]
  %110 = getelementptr inbounds [300 x i32], [300 x i32]* %2, i64 0, i64 %109
  %111 = load i32, i32* %110, align 4, !tbaa !5
  %112 = call i32 (i8*, ...) @printf(i8* nonnull dereferenceable(1) getelementptr inbounds ([4 x i8], [4 x i8]* @.str.1, i64 0, i64 0), i32 %111)
  %113 = add nuw nsw i64 %109, 1
  %114 = icmp eq i64 %113, %107
  br i1 %114, label %115, label %108, !llvm.loop !12

115:                                              ; preds = %108, %85, %100
  call void @llvm.lifetime.end.p0i8(i64 4, i8* nonnull %6) #4
  call void @llvm.lifetime.end.p0i8(i64 1200, i8* nonnull %5) #4
  call void @llvm.lifetime.end.p0i8(i64 1200, i8* nonnull %4) #4
  ret void

116:                                              ; preds = %62
  store i32 0, i32* %65, align 4, !tbaa !5
  br label %117

117:                                              ; preds = %116, %62
  %118 = add nuw nsw i64 %56, 2
  %119 = icmp eq i64 %118, %14
  br i1 %119, label %24, label %55, !llvm.loop !13

120:                                              ; preds = %79
  %121 = sext i32 %80 to i64
  %122 = getelementptr inbounds [300 x i32], [300 x i32]* %2, i64 0, i64 %121
  store i32 %83, i32* %122, align 4, !tbaa !5
  %123 = add nsw i32 %80, 1
  br label %124

124:                                              ; preds = %120, %79
  %125 = phi i32 [ %123, %120 ], [ %80, %79 ]
  %126 = add nuw nsw i64 %69, 2
  %127 = add i64 %71, -2
  %128 = icmp eq i64 %127, 0
  br i1 %128, label %87, label %68, !llvm.loop !14
}

; Function Attrs: argmemonly mustprogress nofree nosync nounwind willreturn
declare void @llvm.lifetime.start.p0i8(i64 immarg, i8* nocapture) #1

; Function Attrs: argmemonly mustprogress nofree nounwind willreturn writeonly
declare void @llvm.memset.p0i8.i64(i8* nocapture writeonly, i8, i64, i1 immarg) #2

; Function Attrs: nofree nounwind
declare noundef i32 @__isoc99_scanf(i8* nocapture noundef readonly, ...) local_unnamed_addr #3

; Function Attrs: nofree nounwind
declare noundef i32 @printf(i8* nocapture noundef readonly, ...) local_unnamed_addr #3

; Function Attrs: argmemonly mustprogress nofree nosync nounwind willreturn
declare void @llvm.lifetime.end.p0i8(i64 immarg, i8* nocapture) #1


!llvm.module.flags = !{!0, !1, !2, !3}
!llvm.ident = !{!4}

!0 = !{i32 1, !"wchar_size", i32 4}
!1 = !{i32 7, !"PIC Level", i32 2}
!2 = !{i32 7, !"PIE Level", i32 2}
!3 = !{i32 7, !"uwtable", i32 1}
!4 = !{!"clang version 13.0.0"}
!5 = !{!6, !6, i64 0}
!6 = !{!"int", !7, i64 0}
!7 = !{!"omnipotent char", !8, i64 0}
!8 = !{!"Simple C/C++ TBAA"}
!9 = distinct !{!9, !10}
!10 = !{!"llvm.loop.mustprogress"}
!11 = distinct !{!11, !10}
!12 = distinct !{!12, !10}
!13 = distinct !{!13, !10}
!14 = distinct !{!14, !10}
